target datalayout = "e-m:e-p270:32:32-p271:32:32-p272:64:64-i64:64-i128:128-f80:128-n8:16:32:64-S128"
target triple = "x86_64-pc-linux-gnu"

; Function Attrs: nounwind uwtable
define internal void @skip_prefix(ptr noundef %0, ptr noundef %1, i64 noundef %2, i32 noundef %3) #0 {
  %5 = alloca ptr, align 8
  %6 = alloca ptr, align 8
  %7 = alloca i64, align 8
  %8 = alloca i32, align 4
  %9 = alloca ptr, align 8
  %10 = alloca i64, align 8
  %11 = alloca i32, align 4
  store ptr %0, ptr %5, align 8, !tbaa !71
  store ptr %1, ptr %6, align 8, !tbaa !93
  store i64 %2, ptr %7, align 8, !tbaa !10
  store i32 %3, ptr %8, align 4, !tbaa !15
  call void @llvm.lifetime.start.p0(i64 8, ptr %9) #8
  %12 = load ptr, ptr %5, align 8, !tbaa !71
  %13 = load ptr, ptr %12, align 8, !tbaa !3
  store ptr %13, ptr %9, align 8, !tbaa !3
  call void @llvm.lifetime.start.p0(i64 8, ptr %10) #8
  %14 = load ptr, ptr %6, align 8, !tbaa !93
  %15 = load i64, ptr %14, align 8, !tbaa !10
  store i64 %15, ptr %10, align 8, !tbaa !10
  %16 = load i32, ptr %8, align 4, !tbaa !15
  %17 = and i32 %16, 32768
  %18 = icmp eq i32 %17, 0
  br i1 %18, label %19, label %20

19:                                               ; preds = %4
  store i32 1, ptr %11, align 4
  br label %57

20:                                               ; preds = %4
  br label %21

21:                                               ; preds = %42, %20
  %22 = load i64, ptr %10, align 8, !tbaa !10
  %23 = load i64, ptr %7, align 8, !tbaa !10
  %24 = icmp ugt i64 %22, %23
  br i1 %24, label %25, label %30

25:                                               ; preds = %21
  %26 = load ptr, ptr %9, align 8, !tbaa !3
  %27 = load i8, ptr %26, align 1, !tbaa !27
  %28 = zext i8 %27 to i32
  %29 = icmp ne i32 %28, 0
  br label %30

30:                                               ; preds = %25, %21
  %31 = phi i1 [ false, %21 ], [ %29, %25 ]
  br i1 %31, label %32, label %47

32:                                               ; preds = %30
  %33 = load i32, ptr %8, align 4, !tbaa !15
  %34 = and i32 %33, 16
  %35 = icmp ne i32 %34, 0
  br i1 %35, label %36, label %42

36:                                               ; preds = %32
  %37 = load ptr, ptr %9, align 8, !tbaa !3
  %38 = load i8, ptr %37, align 1, !tbaa !27
  %39 = zext i8 %38 to i32
  %40 = icmp eq i32 %39, 46
  br i1 %40, label %41, label %42

41:                                               ; preds = %36
  br label %47

42:                                               ; preds = %36, %32
  %43 = load ptr, ptr %9, align 8, !tbaa !3
  %44 = getelementptr inbounds nuw i8, ptr %43, i32 1
  store ptr %44, ptr %9, align 8, !tbaa !3
  %45 = load i64, ptr %10, align 8, !tbaa !10
  %46 = add i64 %45, -1
  store i64 %46, ptr %10, align 8, !tbaa !10
  br label %21, !llvm.loop !95

47:                                               ; preds = %41, %30
  %48 = load i64, ptr %10, align 8, !tbaa !10
  %49 = load i64, ptr %7, align 8, !tbaa !10
  %50 = icmp eq i64 %48, %49
  br i1 %50, label %51, label %56

51:                                               ; preds = %47
  %52 = load ptr, ptr %9, align 8, !tbaa !3
  %53 = load ptr, ptr %5, align 8, !tbaa !71
  store ptr %52, ptr %53, align 8, !tbaa !3
  %54 = load i64, ptr %10, align 8, !tbaa !10
  %55 = load ptr, ptr %6, align 8, !tbaa !93
  store i64 %54, ptr %55, align 8, !tbaa !10
  br label %56

56:                                               ; preds = %51, %47
  store i32 0, ptr %11, align 4
  br label %57

57:                                               ; preds = %56, %19
  call void @llvm.lifetime.end.p0(i64 8, ptr %10) #8
  call void @llvm.lifetime.end.p0(i64 8, ptr %9) #8
  %58 = load i32, ptr %11, align 4
  switch i32 %58, label %60 [
    i32 0, label %59
    i32 1, label %59
  ]

59:                                               ; preds = %57, %57
  ret void

60:                                               ; preds = %57
  unreachable
}

; Function Attrs: nounwind uwtable
define internal i32 @equal_case(ptr noundef %0, i64 noundef %1, ptr noundef %2, i64 noundef %3, i32 noundef %4) #0 {
  %6 = alloca i32, align 4
  %7 = alloca ptr, align 8
  %8 = alloca i64, align 8
  %9 = alloca ptr, align 8
  %10 = alloca i64, align 8
  %11 = alloca i32, align 4
  store ptr %0, ptr %7, align 8, !tbaa !3
  store i64 %1, ptr %8, align 8, !tbaa !10
  store ptr %2, ptr %9, align 8, !tbaa !3
  store i64 %3, ptr %10, align 8, !tbaa !10
  store i32 %4, ptr %11, align 4, !tbaa !15
  %12 = load i64, ptr %10, align 8, !tbaa !10
  %13 = load i32, ptr %11, align 4, !tbaa !15
  call void @skip_prefix(ptr noundef %7, ptr noundef %8, i64 noundef %12, i32 noundef %13)
  %14 = load i64, ptr %8, align 8, !tbaa !10
  %15 = load i64, ptr %10, align 8, !tbaa !10
  %16 = icmp ne i64 %14, %15
  br i1 %16, label %17, label %18

17:                                               ; preds = %5
  store i32 0, ptr %6, align 4
  br label %26

18:                                               ; preds = %5
  %19 = load ptr, ptr %7, align 8, !tbaa !3
  %20 = load ptr, ptr %9, align 8, !tbaa !3
  %21 = load i64, ptr %8, align 8, !tbaa !10
  %22 = call i32 @memcmp(ptr noundef %19, ptr noundef %20, i64 noundef %21) #7
  %23 = icmp ne i32 %22, 0
  %24 = xor i1 %23, true
  %25 = zext i1 %24 to i32
  store i32 %25, ptr %6, align 4
  br label %26

26:                                               ; preds = %18, %17
  %27 = load i32, ptr %6, align 4
  ret i32 %27
}