; Function Attrs: nofree nounwind memory(argmem: read) uwtable
define internal range(i32 0, 2) i32 @equal_case(ptr noundef readonly captures(none) %0, i64 noundef %1, ptr noundef readonly captures(none) %2, i64 noundef %3, i32 noundef %4) #6 {
  %6 = and i32 %4, 32768
  %7 = icmp eq i32 %6, 0
  br i1 %7, label %skip_prefix.exit, label %.preheader.i

.preheader.i:                                     ; preds = %5
  %8 = icmp ugt i64 %1, %3
  br i1 %8, label %.lr.ph.i, label %.critedge.i

.lr.ph.i:                                         ; preds = %.preheader.i
  %9 = and i32 %4, 16
  %.not17.not.i = icmp eq i32 %9, 0
  %10 = sub nuw i64 %1, %3
  %scevgep33.i = getelementptr i8, ptr %0, i64 %10
  br i1 %.not17.not.i, label %.lr.ph.split.us.i, label %.lr.ph.split.i

.lr.ph.split.us.i:                                ; preds = %.lr.ph.i, %12
  %.019.us.i = phi i64 [ %14, %12 ], [ %1, %.lr.ph.i ]
  %.01518.us.i = phi ptr [ %13, %12 ], [ %0, %.lr.ph.i ]
  %11 = load i8, ptr %.01518.us.i, align 1, !tbaa !13
  %.not.us.i = icmp eq i8 %11, 0
  br i1 %.not.us.i, label %.critedge.i, label %12

12:                                               ; preds = %.lr.ph.split.us.i
  %13 = getelementptr inbounds nuw i8, ptr %.01518.us.i, i64 1
  %14 = add i64 %.019.us.i, -1
  %15 = icmp ugt i64 %14, %3
  br i1 %15, label %.lr.ph.split.us.i, label %skip_prefix.exit.thread, !llvm.loop !60

.lr.ph.split.i:                                   ; preds = %.lr.ph.i, %17
  %.019.i = phi i64 [ %19, %17 ], [ %1, %.lr.ph.i ]
  %.01518.i = phi ptr [ %18, %17 ], [ %0, %.lr.ph.i ]
  %16 = load i8, ptr %.01518.i, align 1, !tbaa !13
  switch i8 %16, label %17 [
    i8 0, label %.critedge.i
    i8 46, label %.critedge.i
  ]

17:                                               ; preds = %.lr.ph.split.i
  %18 = getelementptr inbounds nuw i8, ptr %.01518.i, i64 1
  %19 = add i64 %.019.i, -1
  %20 = icmp ugt i64 %19, %3
  br i1 %20, label %.lr.ph.split.i, label %skip_prefix.exit.thread, !llvm.loop !60

.critedge.i:                                      ; preds = %.lr.ph.split.i, %.lr.ph.split.i, %.lr.ph.split.us.i, %.preheader.i
  %.015.lcssa.i = phi ptr [ %0, %.preheader.i ], [ %.01518.us.i, %.lr.ph.split.us.i ], [ %.01518.i, %.lr.ph.split.i ], [ %.01518.i, %.lr.ph.split.i ]
  %.0.lcssa.i = phi i64 [ %1, %.preheader.i ], [ %.019.us.i, %.lr.ph.split.us.i ], [ %.019.i, %.lr.ph.split.i ], [ %.019.i, %.lr.ph.split.i ]
  %21 = icmp eq i64 %.0.lcssa.i, %3
  br i1 %21, label %skip_prefix.exit.thread, label %skip_prefix.exit

skip_prefix.exit:                                 ; preds = %5, %.critedge.i
  %.not = icmp eq i64 %1, %3
  br i1 %.not, label %skip_prefix.exit.thread, label %23

skip_prefix.exit.thread:                          ; preds = %17, %12, %.critedge.i, %skip_prefix.exit
  %.0814 = phi i64 [ %1, %skip_prefix.exit ], [ %3, %.critedge.i ], [ %3, %12 ], [ %3, %17 ]
  %.0913 = phi ptr [ %0, %skip_prefix.exit ], [ %.015.lcssa.i, %.critedge.i ], [ %scevgep33.i, %12 ], [ %scevgep33.i, %17 ]
  %bcmp = tail call i32 @bcmp(ptr %.0913, ptr %2, i64 %.0814)
  %.not5 = icmp eq i32 %bcmp, 0
  %22 = zext i1 %.not5 to i32
  br label %23

23:                                               ; preds = %skip_prefix.exit, %skip_prefix.exit.thread
  %.0 = phi i32 [ %22, %skip_prefix.exit.thread ], [ 0, %skip_prefix.exit ]
  ret i32 %.0
}